target datalayout = "e-m:e-p270:32:32-p271:32:32-p272:64:64-i64:64-i128:128-f80:128-n8:16:32:64-S128"
target triple = "x86_64-pc-linux-gnu"

%class.anon.707 = type { i8 }

@.str.437 = private unnamed_addr constant [6 x i8] c"value\00", align 1
@.str.493 = private unnamed_addr constant [6 x i8] c"int64\00", align 1
@.str.502 = private unnamed_addr constant [17 x i8] c"unknown field %s\00", align 1

; Function Attrs: mustprogress uwtable
define internal noundef i32 @"_ZZZL21DOCTEST_ANON_FUNC_128vENK3$_0clEP9lua_StateENKUlS1_E0_clES1_"(ptr noundef nonnull align 1 dereferenceable(1) %0, ptr noundef %1) #4 align 2 {
  %3 = alloca ptr, align 8
  %4 = alloca ptr, align 8
  %5 = alloca ptr, align 8
  %6 = alloca ptr, align 8
  %7 = alloca double, align 8
  store ptr %0, ptr %3, align 8
  store ptr %1, ptr %4, align 8
  %8 = load ptr, ptr %4, align 8
  %9 = call noundef ptr @_Z20lua_touserdatataggedP9lua_Stateii(ptr noundef %8, i32 noundef 1, i32 noundef 1)
  store ptr %9, ptr %5, align 8
  %10 = load ptr, ptr %5, align 8
  %11 = icmp ne ptr %10, null
  br i1 %11, label %14, label %12

12:                                               ; preds = %2
  %13 = load ptr, ptr %4, align 8
  call void @_Z15luaL_typeerrorLP9lua_StateiPKc(ptr noundef %13, i32 noundef 1, ptr noundef @.str.493) #19
  unreachable

14:                                               ; preds = %2
  %15 = load ptr, ptr %4, align 8
  %16 = call noundef ptr @_Z17luaL_checklstringP9lua_StateiPm(ptr noundef %15, i32 noundef 2, ptr noundef null)
  store ptr %16, ptr %6, align 8
  %17 = load ptr, ptr %6, align 8
  %18 = call i32 @strcmp(ptr noundef %17, ptr noundef @.str.437) #18
  %19 = icmp eq i32 %18, 0
  br i1 %19, label %20, label %26

20:                                               ; preds = %14
  %21 = load ptr, ptr %4, align 8
  %22 = call noundef double @_Z16luaL_checknumberP9lua_Statei(ptr noundef %21, i32 noundef 3)
  store double %22, ptr %7, align 8
  %23 = load double, ptr %7, align 8
  %24 = fptosi double %23 to i64
  %25 = load ptr, ptr %5, align 8
  store i64 %24, ptr %25, align 8
  ret i32 0

26:                                               ; preds = %14
  %27 = load ptr, ptr %4, align 8
  %28 = load ptr, ptr %6, align 8
  call void (ptr, ptr, ...) @_Z11luaL_errorLP9lua_StatePKcz(ptr noundef %27, ptr noundef @.str.502, ptr noundef %28) #19
  unreachable
}

; Function Attrs: mustprogress uwtable
define internal noundef i32 @"_ZZZL21DOCTEST_ANON_FUNC_128vENK3$_0clEP9lua_StateENUlS1_E0_8__invokeES1_"(ptr noundef %0) #4 align 2 {
  %2 = alloca ptr, align 8
  %3 = alloca %class.anon.707, align 1
  store ptr %0, ptr %2, align 8
  %4 = load ptr, ptr %2, align 8
  %5 = call noundef i32 @"_ZZZL21DOCTEST_ANON_FUNC_128vENK3$_0clEP9lua_StateENKUlS1_E0_clES1_"(ptr noundef nonnull align 1 dereferenceable(1) %3, ptr noundef %4)
  ret i32 %5
}