; Function Attrs: mustprogress uwtable
define internal noundef i32 @"_ZZZL21DOCTEST_ANON_FUNC_128vENK3$_0clEP9lua_StateENUlS1_E0_8__invokeES1_"(ptr noundef %0) #4 align 2 {
  %2 = tail call noundef ptr @_Z20lua_touserdatataggedP9lua_Stateii(ptr noundef %0, i32 noundef 1, i32 noundef 1)
  %.not.i = icmp eq ptr %2, null
  br i1 %.not.i, label %3, label %4

3:                                                ; preds = %1
  tail call void @_Z15luaL_typeerrorLP9lua_StateiPKc(ptr noundef %0, i32 noundef 1, ptr noundef nonnull @.str.493) #34
  unreachable

4:                                                ; preds = %1
  %5 = tail call noundef ptr @_Z17luaL_checklstringP9lua_StateiPm(ptr noundef %0, i32 noundef 2, ptr noundef null)
  %6 = tail call i32 @strcmp(ptr noundef nonnull dereferenceable(1) %5, ptr noundef nonnull dereferenceable(6) @.str.437) #33
  %7 = icmp eq i32 %6, 0
  br i1 %7, label %"_ZZZL21DOCTEST_ANON_FUNC_128vENK3$_0clEP9lua_StateENKUlS1_E0_clES1_.exit", label %8

8:                                                ; preds = %4
  tail call void (ptr, ptr, ...) @_Z11luaL_errorLP9lua_StatePKcz(ptr noundef %0, ptr noundef nonnull @.str.502, ptr noundef %5) #34
  unreachable

"_ZZZL21DOCTEST_ANON_FUNC_128vENK3$_0clEP9lua_StateENKUlS1_E0_clES1_.exit": ; preds = %4
  %9 = tail call noundef double @_Z16luaL_checknumberP9lua_Statei(ptr noundef %0, i32 noundef 3)
  %10 = fptosi double %9 to i64
  store i64 %10, ptr %2, align 8
  ret i32 0
}